target datalayout = "e-m:e-p270:32:32-p271:32:32-p272:64:64-i64:64-i128:128-f80:128-n8:16:32:64-S128"
target triple = "x86_64-pc-linux-gnu"

%struct.FT_ListRec_ = type { ptr, ptr }
%struct.FT_CharMapRec_ = type { ptr, i32, i16, i16 }
%struct.T1_FaceRec_ = type { %struct.FT_FaceRec_, %struct.T1_FontRec_, ptr, ptr, ptr, [2 x %struct.FT_CharMapRec_], [2 x ptr], ptr, i32, i32, i32, ptr, ptr }
%struct.FT_FaceRec_ = type { i64, i64, i64, i64, i64, ptr, ptr, i32, ptr, i32, ptr, %struct.FT_Generic_, %struct.FT_BBox_, i16, i16, i16, i16, i16, i16, i16, i16, ptr, ptr, ptr, ptr, ptr, ptr, %struct.FT_ListRec_, %struct.FT_Generic_, ptr, ptr }
%struct.FT_BBox_ = type { i64, i64, i64, i64 }
%struct.FT_Generic_ = type { ptr, ptr }
%struct.T1_FontRec_ = type { %struct.PS_FontInfoRec_, %struct.PS_FontExtraRec_, %struct.PS_PrivateRec_, ptr, i32, %struct.T1_EncodingRecRec_, ptr, ptr, ptr, i32, ptr, ptr, ptr, i32, ptr, ptr, ptr, i8, i8, %struct.FT_Matrix_, %struct.FT_Vector_, %struct.FT_BBox_, i64, i64 }
%struct.PS_FontInfoRec_ = type { ptr, ptr, ptr, ptr, ptr, i64, i8, i16, i16 }
%struct.PS_FontExtraRec_ = type { i16 }
%struct.PS_PrivateRec_ = type { i32, i32, i8, i8, i8, i8, [14 x i16], [10 x i16], [14 x i16], [10 x i16], i64, i32, i32, [1 x i16], [1 x i16], i8, i8, i8, i8, [13 x i16], [13 x i16], i64, i64, i64, [2 x i16] }
%struct.T1_EncodingRecRec_ = type { i32, i32, i32, ptr, ptr }
%struct.FT_Matrix_ = type { i64, i64, i64, i64 }
%struct.FT_Vector_ = type { i64, i64 }
%struct.PS_BlendRec_ = type { i32, i32, [4 x ptr], [16 x ptr], [4 x %struct.PS_DesignMap_], ptr, ptr, [17 x ptr], [17 x ptr], i64, [17 x ptr], [16 x i32], i32 }
%struct.PS_DesignMap_ = type { i8, ptr, ptr }
%struct.T1_Loader_ = type { %struct.T1_ParserRec_, i32, %struct.PS_TableRec_, i32, %struct.PS_TableRec_, %struct.PS_TableRec_, %struct.PS_TableRec_, i32, %struct.PS_TableRec_, ptr, i8, i32 }
%struct.T1_ParserRec_ = type { %struct.PS_ParserRec_, ptr, ptr, i64, ptr, i64, i8, i8, i8 }
%struct.PS_ParserRec_ = type { ptr, ptr, ptr, i32, ptr, %struct.PS_Parser_FuncsRec_ }
%struct.PS_Parser_FuncsRec_ = type { ptr, ptr, ptr, ptr, ptr, ptr, ptr, ptr, ptr, ptr, ptr, ptr, ptr }
%struct.PS_TableRec_ = type { ptr, i64, i64, i64, i32, ptr, ptr, ptr, %struct.PS_Table_FuncsRec_ }
%struct.PS_Table_FuncsRec_ = type { ptr, ptr, ptr, ptr }
%struct.T1_TokenRec_ = type { ptr, ptr, i32 }

; Function Attrs: nounwind uwtable
define internal i32 @t1_allocate_blend(ptr noundef %0, i32 noundef %1, i32 noundef %2) #0 {
  %4 = alloca ptr, align 8
  %5 = alloca i32, align 4
  %6 = alloca i32, align 4
  %7 = alloca ptr, align 8
  %8 = alloca ptr, align 8
  %9 = alloca i32, align 4
  %10 = alloca i32, align 4
  store ptr %0, ptr %4, align 8
  store i32 %1, ptr %5, align 4
  store i32 %2, ptr %6, align 4
  %11 = load ptr, ptr %4, align 8
  %12 = getelementptr inbounds %struct.T1_FaceRec_, ptr %11, i32 0, i32 0
  %13 = getelementptr inbounds %struct.FT_FaceRec_, ptr %12, i32 0, i32 25
  %14 = load ptr, ptr %13, align 8
  store ptr %14, ptr %8, align 8
  store i32 0, ptr %9, align 4
  %15 = load ptr, ptr %4, align 8
  %16 = getelementptr inbounds %struct.T1_FaceRec_, ptr %15, i32 0, i32 7
  %17 = load ptr, ptr %16, align 8
  store ptr %17, ptr %7, align 8
  %18 = load ptr, ptr %7, align 8
  %19 = icmp ne ptr %18, null
  br i1 %19, label %39, label %20

20:                                               ; preds = %3
  %21 = load ptr, ptr %8, align 8
  %22 = call ptr @ft_mem_alloc(ptr noundef %21, i64 noundef 768, ptr noundef %9)
  store ptr %22, ptr %7, align 8
  %23 = load i32, ptr %9, align 4
  %24 = icmp ne i32 %23, 0
  br i1 %24, label %25, label %26

25:                                               ; preds = %20
  br label %177

26:                                               ; preds = %20
  %27 = load ptr, ptr %7, align 8
  %28 = getelementptr inbounds %struct.PS_BlendRec_, ptr %27, i32 0, i32 12
  store i32 0, ptr %28, align 8
  %29 = load ptr, ptr %7, align 8
  %30 = getelementptr inbounds %struct.PS_BlendRec_, ptr %29, i32 0, i32 5
  store ptr null, ptr %30, align 8
  %31 = load ptr, ptr %7, align 8
  %32 = getelementptr inbounds %struct.PS_BlendRec_, ptr %31, i32 0, i32 6
  store ptr null, ptr %32, align 8
  %33 = load ptr, ptr %7, align 8
  %34 = getelementptr inbounds %struct.PS_BlendRec_, ptr %33, i32 0, i32 3
  %35 = getelementptr inbounds [16 x ptr], ptr %34, i64 0, i64 0
  store ptr null, ptr %35, align 8
  %36 = load ptr, ptr %7, align 8
  %37 = load ptr, ptr %4, align 8
  %38 = getelementptr inbounds %struct.T1_FaceRec_, ptr %37, i32 0, i32 7
  store ptr %36, ptr %38, align 8
  br label %39

39:                                               ; preds = %26, %3
  %40 = load i32, ptr %5, align 4
  %41 = icmp ugt i32 %40, 0
  br i1 %41, label %42, label %157

42:                                               ; preds = %39
  %43 = load ptr, ptr %7, align 8
  %44 = getelementptr inbounds %struct.PS_BlendRec_, ptr %43, i32 0, i32 0
  %45 = load i32, ptr %44, align 8
  %46 = icmp eq i32 %45, 0
  br i1 %46, label %47, label %148

47:                                               ; preds = %42
  %48 = load ptr, ptr %8, align 8
  %49 = load i32, ptr %5, align 4
  %50 = zext i32 %49 to i64
  %51 = call ptr @ft_mem_realloc(ptr noundef %48, i64 noundef 56, i64 noundef 0, i64 noundef %50, ptr noundef null, ptr noundef %9)
  %52 = load ptr, ptr %7, align 8
  %53 = getelementptr inbounds %struct.PS_BlendRec_, ptr %52, i32 0, i32 7
  %54 = getelementptr inbounds [17 x ptr], ptr %53, i64 0, i64 1
  store ptr %51, ptr %54, align 8
  %55 = load i32, ptr %9, align 4
  %56 = icmp ne i32 %55, 0
  br i1 %56, label %77, label %57

57:                                               ; preds = %47
  %58 = load ptr, ptr %8, align 8
  %59 = load i32, ptr %5, align 4
  %60 = zext i32 %59 to i64
  %61 = call ptr @ft_mem_realloc(ptr noundef %58, i64 noundef 224, i64 noundef 0, i64 noundef %60, ptr noundef null, ptr noundef %9)
  %62 = load ptr, ptr %7, align 8
  %63 = getelementptr inbounds %struct.PS_BlendRec_, ptr %62, i32 0, i32 8
  %64 = getelementptr inbounds [17 x ptr], ptr %63, i64 0, i64 1
  store ptr %61, ptr %64, align 8
  %65 = load i32, ptr %9, align 4
  %66 = icmp ne i32 %65, 0
  br i1 %66, label %77, label %67

67:                                               ; preds = %57
  %68 = load ptr, ptr %8, align 8
  %69 = load i32, ptr %5, align 4
  %70 = zext i32 %69 to i64
  %71 = call ptr @ft_mem_realloc(ptr noundef %68, i64 noundef 32, i64 noundef 0, i64 noundef %70, ptr noundef null, ptr noundef %9)
  %72 = load ptr, ptr %7, align 8
  %73 = getelementptr inbounds %struct.PS_BlendRec_, ptr %72, i32 0, i32 10
  %74 = getelementptr inbounds [17 x ptr], ptr %73, i64 0, i64 1
  store ptr %71, ptr %74, align 8
  %75 = load i32, ptr %9, align 4
  %76 = icmp ne i32 %75, 0
  br i1 %76, label %77, label %78

77:                                               ; preds = %67, %57, %47
  br label %177

78:                                               ; preds = %67
  %79 = load ptr, ptr %4, align 8
  %80 = getelementptr inbounds %struct.T1_FaceRec_, ptr %79, i32 0, i32 1
  %81 = getelementptr inbounds %struct.T1_FontRec_, ptr %80, i32 0, i32 0
  %82 = load ptr, ptr %7, align 8
  %83 = getelementptr inbounds %struct.PS_BlendRec_, ptr %82, i32 0, i32 7
  %84 = getelementptr inbounds [17 x ptr], ptr %83, i64 0, i64 0
  store ptr %81, ptr %84, align 8
  %85 = load ptr, ptr %4, align 8
  %86 = getelementptr inbounds %struct.T1_FaceRec_, ptr %85, i32 0, i32 1
  %87 = getelementptr inbounds %struct.T1_FontRec_, ptr %86, i32 0, i32 2
  %88 = load ptr, ptr %7, align 8
  %89 = getelementptr inbounds %struct.PS_BlendRec_, ptr %88, i32 0, i32 8
  %90 = getelementptr inbounds [17 x ptr], ptr %89, i64 0, i64 0
  store ptr %87, ptr %90, align 8
  %91 = load ptr, ptr %4, align 8
  %92 = getelementptr inbounds %struct.T1_FaceRec_, ptr %91, i32 0, i32 1
  %93 = getelementptr inbounds %struct.T1_FontRec_, ptr %92, i32 0, i32 21
  %94 = load ptr, ptr %7, align 8
  %95 = getelementptr inbounds %struct.PS_BlendRec_, ptr %94, i32 0, i32 10
  %96 = getelementptr inbounds [17 x ptr], ptr %95, i64 0, i64 0
  store ptr %93, ptr %96, align 8
  store i32 2, ptr %10, align 4
  br label %97

97:                                               ; preds = %141, %78
  %98 = load i32, ptr %10, align 4
  %99 = load i32, ptr %5, align 4
  %100 = icmp ule i32 %98, %99
  br i1 %100, label %101, label %144

101:                                              ; preds = %97
  %102 = load ptr, ptr %7, align 8
  %103 = getelementptr inbounds %struct.PS_BlendRec_, ptr %102, i32 0, i32 7
  %104 = load i32, ptr %10, align 4
  %105 = sub i32 %104, 1
  %106 = zext i32 %105 to i64
  %107 = getelementptr inbounds [17 x ptr], ptr %103, i64 0, i64 %106
  %108 = load ptr, ptr %107, align 8
  %109 = getelementptr inbounds %struct.PS_FontInfoRec_, ptr %108, i64 1
  %110 = load ptr, ptr %7, align 8
  %111 = getelementptr inbounds %struct.PS_BlendRec_, ptr %110, i32 0, i32 7
  %112 = load i32, ptr %10, align 4
  %113 = zext i32 %112 to i64
  %114 = getelementptr inbounds [17 x ptr], ptr %111, i64 0, i64 %113
  store ptr %109, ptr %114, align 8
  %115 = load ptr, ptr %7, align 8
  %116 = getelementptr inbounds %struct.PS_BlendRec_, ptr %115, i32 0, i32 8
  %117 = load i32, ptr %10, align 4
  %118 = sub i32 %117, 1
  %119 = zext i32 %118 to i64
  %120 = getelementptr inbounds [17 x ptr], ptr %116, i64 0, i64 %119
  %121 = load ptr, ptr %120, align 8
  %122 = getelementptr inbounds %struct.PS_PrivateRec_, ptr %121, i64 1
  %123 = load ptr, ptr %7, align 8
  %124 = getelementptr inbounds %struct.PS_BlendRec_, ptr %123, i32 0, i32 8
  %125 = load i32, ptr %10, align 4
  %126 = zext i32 %125 to i64
  %127 = getelementptr inbounds [17 x ptr], ptr %124, i64 0, i64 %126
  store ptr %122, ptr %127, align 8
  %128 = load ptr, ptr %7, align 8
  %129 = getelementptr inbounds %struct.PS_BlendRec_, ptr %128, i32 0, i32 10
  %130 = load i32, ptr %10, align 4
  %131 = sub i32 %130, 1
  %132 = zext i32 %131 to i64
  %133 = getelementptr inbounds [17 x ptr], ptr %129, i64 0, i64 %132
  %134 = load ptr, ptr %133, align 8
  %135 = getelementptr inbounds %struct.FT_BBox_, ptr %134, i64 1
  %136 = load ptr, ptr %7, align 8
  %137 = getelementptr inbounds %struct.PS_BlendRec_, ptr %136, i32 0, i32 10
  %138 = load i32, ptr %10, align 4
  %139 = zext i32 %138 to i64
  %140 = getelementptr inbounds [17 x ptr], ptr %137, i64 0, i64 %139
  store ptr %135, ptr %140, align 8
  br label %141

141:                                              ; preds = %101
  %142 = load i32, ptr %10, align 4
  %143 = add i32 %142, 1
  store i32 %143, ptr %10, align 4
  br label %97, !llvm.loop !55

144:                                              ; preds = %97
  %145 = load i32, ptr %5, align 4
  %146 = load ptr, ptr %7, align 8
  %147 = getelementptr inbounds %struct.PS_BlendRec_, ptr %146, i32 0, i32 0
  store i32 %145, ptr %147, align 8
  br label %156

148:                                              ; preds = %42
  %149 = load ptr, ptr %7, align 8
  %150 = getelementptr inbounds %struct.PS_BlendRec_, ptr %149, i32 0, i32 0
  %151 = load i32, ptr %150, align 8
  %152 = load i32, ptr %5, align 4
  %153 = icmp ne i32 %151, %152
  br i1 %153, label %154, label %155

154:                                              ; preds = %148
  br label %179

155:                                              ; preds = %148
  br label %156

156:                                              ; preds = %155, %144
  br label %157

157:                                              ; preds = %156, %39
  %158 = load i32, ptr %6, align 4
  %159 = icmp ugt i32 %158, 0
  br i1 %159, label %160, label %176

160:                                              ; preds = %157
  %161 = load ptr, ptr %7, align 8
  %162 = getelementptr inbounds %struct.PS_BlendRec_, ptr %161, i32 0, i32 1
  %163 = load i32, ptr %162, align 4
  %164 = icmp ne i32 %163, 0
  br i1 %164, label %165, label %172

165:                                              ; preds = %160
  %166 = load ptr, ptr %7, align 8
  %167 = getelementptr inbounds %struct.PS_BlendRec_, ptr %166, i32 0, i32 1
  %168 = load i32, ptr %167, align 4
  %169 = load i32, ptr %6, align 4
  %170 = icmp ne i32 %168, %169
  br i1 %170, label %171, label %172

171:                                              ; preds = %165
  br label %179

172:                                              ; preds = %165, %160
  %173 = load i32, ptr %6, align 4
  %174 = load ptr, ptr %7, align 8
  %175 = getelementptr inbounds %struct.PS_BlendRec_, ptr %174, i32 0, i32 1
  store i32 %173, ptr %175, align 4
  br label %176

176:                                              ; preds = %172, %157
  br label %177

177:                                              ; preds = %179, %176, %77, %25
  %178 = load i32, ptr %9, align 4
  ret i32 %178

179:                                              ; preds = %171, %154
  store i32 3, ptr %9, align 4
  br label %177
}

; Function Attrs: nounwind uwtable
define internal void @parse_blend_axis_types(ptr noundef %0, ptr noundef %1) #0 {
  %3 = alloca ptr, align 8
  %4 = alloca ptr, align 8
  %5 = alloca ptr, align 8
  %6 = alloca ptr, align 8
  %7 = alloca [4 x %struct.T1_TokenRec_], align 16
  %8 = alloca i32, align 4
  %9 = alloca i32, align 4
  %10 = alloca i32, align 4
  %11 = alloca ptr, align 8
  %12 = alloca ptr, align 8
  %13 = alloca ptr, align 8
  %14 = alloca ptr, align 8
  %15 = alloca i32, align 4
  store ptr %0, ptr %3, align 8
  store ptr %1, ptr %4, align 8
  %16 = load ptr, ptr %3, align 8
  store ptr %16, ptr %5, align 8
  %17 = load ptr, ptr %4, align 8
  store ptr %17, ptr %6, align 8
  store i32 0, ptr %10, align 4
  %18 = load ptr, ptr %3, align 8
  %19 = getelementptr inbounds %struct.FT_FaceRec_, ptr %18, i32 0, i32 25
  %20 = load ptr, ptr %19, align 8
  store ptr %20, ptr %12, align 8
  %21 = load ptr, ptr %6, align 8
  %22 = getelementptr inbounds %struct.T1_Loader_, ptr %21, i32 0, i32 0
  %23 = getelementptr inbounds %struct.T1_ParserRec_, ptr %22, i32 0, i32 0
  %24 = getelementptr inbounds %struct.PS_ParserRec_, ptr %23, i32 0, i32 5
  %25 = getelementptr inbounds %struct.PS_Parser_FuncsRec_, ptr %24, i32 0, i32 10
  %26 = load ptr, ptr %25, align 8
  %27 = load ptr, ptr %6, align 8
  %28 = getelementptr inbounds %struct.T1_Loader_, ptr %27, i32 0, i32 0
  %29 = getelementptr inbounds %struct.T1_ParserRec_, ptr %28, i32 0, i32 0
  %30 = getelementptr inbounds [4 x %struct.T1_TokenRec_], ptr %7, i64 0, i64 0
  call void %26(ptr noundef %29, ptr noundef %30, i32 noundef 4, ptr noundef %9)
  %31 = load i32, ptr %9, align 4
  %32 = icmp slt i32 %31, 0
  br i1 %32, label %33, label %34

33:                                               ; preds = %2
  store i32 162, ptr %10, align 4
  br label %146

34:                                               ; preds = %2
  %35 = load i32, ptr %9, align 4
  %36 = icmp eq i32 %35, 0
  br i1 %36, label %40, label %37

37:                                               ; preds = %34
  %38 = load i32, ptr %9, align 4
  %39 = icmp sgt i32 %38, 4
  br i1 %39, label %40, label %43

40:                                               ; preds = %37, %34
  br label %41

41:                                               ; preds = %40
  br label %42

42:                                               ; preds = %41
  store i32 3, ptr %10, align 4
  br label %146

43:                                               ; preds = %37
  %44 = load ptr, ptr %5, align 8
  %45 = load i32, ptr %9, align 4
  %46 = call i32 @t1_allocate_blend(ptr noundef %44, i32 noundef 0, i32 noundef %45)
  store i32 %46, ptr %10, align 4
  %47 = load i32, ptr %10, align 4
  %48 = icmp ne i32 %47, 0
  br i1 %48, label %49, label %50

49:                                               ; preds = %43
  br label %146

50:                                               ; preds = %43
  br label %51

51:                                               ; preds = %50
  br label %52

52:                                               ; preds = %51
  %53 = load ptr, ptr %5, align 8
  %54 = getelementptr inbounds %struct.T1_FaceRec_, ptr %53, i32 0, i32 7
  %55 = load ptr, ptr %54, align 8
  store ptr %55, ptr %11, align 8
  store i32 0, ptr %8, align 4
  br label %56

56:                                               ; preds = %140, %52
  %57 = load i32, ptr %8, align 4
  %58 = load i32, ptr %9, align 4
  %59 = icmp slt i32 %57, %58
  br i1 %59, label %60, label %143

60:                                               ; preds = %56
  %61 = getelementptr inbounds [4 x %struct.T1_TokenRec_], ptr %7, i64 0, i64 0
  %62 = load i32, ptr %8, align 4
  %63 = sext i32 %62 to i64
  %64 = getelementptr inbounds %struct.T1_TokenRec_, ptr %61, i64 %63
  store ptr %64, ptr %13, align 8
  %65 = load ptr, ptr %13, align 8
  %66 = getelementptr inbounds %struct.T1_TokenRec_, ptr %65, i32 0, i32 0
  %67 = load ptr, ptr %66, align 8
  %68 = getelementptr inbounds i8, ptr %67, i64 0
  %69 = load i8, ptr %68, align 1
  %70 = zext i8 %69 to i32
  %71 = icmp eq i32 %70, 47
  br i1 %71, label %72, label %77

72:                                               ; preds = %60
  %73 = load ptr, ptr %13, align 8
  %74 = getelementptr inbounds %struct.T1_TokenRec_, ptr %73, i32 0, i32 0
  %75 = load ptr, ptr %74, align 8
  %76 = getelementptr inbounds i8, ptr %75, i32 1
  store ptr %76, ptr %74, align 8
  br label %77

77:                                               ; preds = %72, %60
  %78 = load ptr, ptr %13, align 8
  %79 = getelementptr inbounds %struct.T1_TokenRec_, ptr %78, i32 0, i32 1
  %80 = load ptr, ptr %79, align 8
  %81 = load ptr, ptr %13, align 8
  %82 = getelementptr inbounds %struct.T1_TokenRec_, ptr %81, i32 0, i32 0
  %83 = load ptr, ptr %82, align 8
  %84 = ptrtoint ptr %80 to i64
  %85 = ptrtoint ptr %83 to i64
  %86 = sub i64 %84, %85
  %87 = trunc i64 %86 to i32
  store i32 %87, ptr %15, align 4
  %88 = load i32, ptr %15, align 4
  %89 = icmp eq i32 %88, 0
  br i1 %89, label %90, label %91

90:                                               ; preds = %77
  store i32 3, ptr %10, align 4
  br label %146

91:                                               ; preds = %77
  br label %92

92:                                               ; preds = %91
  br label %93

93:                                               ; preds = %92
  %94 = load ptr, ptr %11, align 8
  %95 = getelementptr inbounds %struct.PS_BlendRec_, ptr %94, i32 0, i32 2
  %96 = load i32, ptr %8, align 4
  %97 = sext i32 %96 to i64
  %98 = getelementptr inbounds [4 x ptr], ptr %95, i64 0, i64 %97
  %99 = load ptr, ptr %98, align 8
  store ptr %99, ptr %14, align 8
  %100 = load ptr, ptr %14, align 8
  %101 = icmp ne ptr %100, null
  br i1 %101, label %102, label %109

102:                                              ; preds = %93
  br label %103

103:                                              ; preds = %102
  br label %104

104:                                              ; preds = %103
  br label %105

105:                                              ; preds = %104
  %106 = load ptr, ptr %12, align 8
  %107 = load ptr, ptr %14, align 8
  call void @ft_mem_free(ptr noundef %106, ptr noundef %107)
  store ptr null, ptr %14, align 8
  br label %108

108:                                              ; preds = %105
  br label %109

109:                                              ; preds = %108, %93
  %110 = load ptr, ptr %12, align 8
  %111 = load i32, ptr %15, align 4
  %112 = add i32 %111, 1
  %113 = zext i32 %112 to i64
  %114 = call ptr @ft_mem_qalloc(ptr noundef %110, i64 noundef %113, ptr noundef %10)
  %115 = load ptr, ptr %11, align 8
  %116 = getelementptr inbounds %struct.PS_BlendRec_, ptr %115, i32 0, i32 2
  %117 = load i32, ptr %8, align 4
  %118 = sext i32 %117 to i64
  %119 = getelementptr inbounds [4 x ptr], ptr %116, i64 0, i64 %118
  store ptr %114, ptr %119, align 8
  %120 = load i32, ptr %10, align 4
  %121 = icmp ne i32 %120, 0
  br i1 %121, label %122, label %123

122:                                              ; preds = %109
  br label %146

123:                                              ; preds = %109
  %124 = load ptr, ptr %11, align 8
  %125 = getelementptr inbounds %struct.PS_BlendRec_, ptr %124, i32 0, i32 2
  %126 = load i32, ptr %8, align 4
  %127 = sext i32 %126 to i64
  %128 = getelementptr inbounds [4 x ptr], ptr %125, i64 0, i64 %127
  %129 = load ptr, ptr %128, align 8
  store ptr %129, ptr %14, align 8
  %130 = load ptr, ptr %14, align 8
  %131 = load ptr, ptr %13, align 8
  %132 = getelementptr inbounds %struct.T1_TokenRec_, ptr %131, i32 0, i32 0
  %133 = load ptr, ptr %132, align 8
  %134 = load i32, ptr %15, align 4
  %135 = zext i32 %134 to i64
  call void @llvm.memcpy.p0.p0.i64(ptr align 1 %130, ptr align 1 %133, i64 %135, i1 false)
  %136 = load ptr, ptr %14, align 8
  %137 = load i32, ptr %15, align 4
  %138 = zext i32 %137 to i64
  %139 = getelementptr inbounds i8, ptr %136, i64 %138
  store i8 0, ptr %139, align 1
  br label %140

140:                                              ; preds = %123
  %141 = load i32, ptr %8, align 4
  %142 = add nsw i32 %141, 1
  store i32 %142, ptr %8, align 4
  br label %56, !llvm.loop !53

143:                                              ; preds = %56
  br label %144

144:                                              ; preds = %143
  br label %145

145:                                              ; preds = %144
  br label %146

146:                                              ; preds = %145, %122, %90, %49, %42, %33
  %147 = load i32, ptr %10, align 4
  %148 = load ptr, ptr %6, align 8
  %149 = getelementptr inbounds %struct.T1_Loader_, ptr %148, i32 0, i32 0
  %150 = getelementptr inbounds %struct.T1_ParserRec_, ptr %149, i32 0, i32 0
  %151 = getelementptr inbounds %struct.PS_ParserRec_, ptr %150, i32 0, i32 3
  store i32 %147, ptr %151, align 8
  ret void
}