; Function Attrs: nounwind uwtable
define internal void @parse_blend_axis_types(ptr nocapture noundef %0, ptr noundef %1) #2 {
  %3 = alloca i32, align 4
  %4 = alloca [4 x %struct.T1_TokenRec_], align 16
  %5 = alloca i32, align 4
  %6 = alloca i32, align 4
  %7 = getelementptr inbounds i8, ptr %0, i64 184
  %8 = load ptr, ptr %7, align 8
  %9 = getelementptr inbounds i8, ptr %1, i64 120
  %10 = load ptr, ptr %9, align 8
  call void %10(ptr noundef %1, ptr noundef nonnull %4, i32 noundef 4, ptr noundef nonnull %5) #16
  %11 = load i32, ptr %5, align 4
  %12 = icmp slt i32 %11, 0
  br i1 %12, label %.loopexit, label %13

13:                                               ; preds = %2
  %14 = add nsw i32 %11, -5
  %or.cond = icmp ult i32 %14, -4
  br i1 %or.cond, label %.loopexit, label %15

15:                                               ; preds = %13
  call void @llvm.lifetime.start.p0(i64 4, ptr nonnull %3)
  %16 = load ptr, ptr %7, align 8
  store i32 0, ptr %3, align 4
  %17 = getelementptr inbounds i8, ptr %0, i64 848
  %18 = load ptr, ptr %17, align 8
  %.not.i = icmp eq ptr %18, null
  br i1 %.not.i, label %19, label %26

19:                                               ; preds = %15
  %20 = call ptr @ft_mem_alloc(ptr noundef %16, i64 noundef 768, ptr noundef nonnull %3) #16
  %21 = load i32, ptr %3, align 4
  %.not57.i = icmp eq i32 %21, 0
  br i1 %.not57.i, label %22, label %t1_allocate_blend.exit.thread

22:                                               ; preds = %19
  %23 = getelementptr inbounds i8, ptr %20, i64 760
  store i32 0, ptr %23, align 8
  %24 = getelementptr inbounds i8, ptr %20, i64 264
  %25 = getelementptr inbounds i8, ptr %20, i64 40
  store ptr null, ptr %25, align 8
  call void @llvm.memset.p0.i64(ptr noundef nonnull align 8 dereferenceable(16) %24, i8 0, i64 16, i1 false)
  store ptr %20, ptr %17, align 8
  br label %26

26:                                               ; preds = %15, %22
  %.051.i = phi ptr [ %18, %15 ], [ %20, %22 ]
  %27 = getelementptr inbounds i8, ptr %.051.i, i64 4
  %28 = load i32, ptr %27, align 4
  %.not65.i = icmp eq i32 %28, 0
  %.not66.i = icmp eq i32 %28, %11
  %or.cond.i = or i1 %.not65.i, %.not66.i
  br i1 %or.cond.i, label %29, label %t1_allocate_blend.exit.thread

t1_allocate_blend.exit.thread:                    ; preds = %26, %19
  %.ph = phi i32 [ %21, %19 ], [ 3, %26 ]
  call void @llvm.lifetime.end.p0(i64 4, ptr nonnull %3)
  br label %.loopexit

29:                                               ; preds = %26
  store i32 %11, ptr %27, align 4
  call void @llvm.lifetime.end.p0(i64 4, ptr nonnull %3)
  store i32 0, ptr %6, align 4
  %30 = load i32, ptr %5, align 4
  %31 = icmp sgt i32 %30, 0
  br i1 %31, label %.lr.ph, label %.loopexit

.lr.ph:                                           ; preds = %29
  %32 = load ptr, ptr %17, align 8
  %33 = getelementptr inbounds i8, ptr %32, i64 8
  br label %34

34:                                               ; preds = %.lr.ph, %59
  %indvars.iv = phi i64 [ 0, %.lr.ph ], [ %indvars.iv.next, %59 ]
  %35 = getelementptr inbounds %struct.T1_TokenRec_, ptr %4, i64 %indvars.iv
  %36 = load ptr, ptr %35, align 8
  %37 = load i8, ptr %36, align 1
  %38 = icmp eq i8 %37, 47
  br i1 %38, label %39, label %41

39:                                               ; preds = %34
  %40 = getelementptr inbounds i8, ptr %36, i64 1
  store ptr %40, ptr %35, align 8
  br label %41

41:                                               ; preds = %39, %34
  %42 = phi ptr [ %40, %39 ], [ %36, %34 ]
  %43 = getelementptr inbounds i8, ptr %35, i64 8
  %44 = load ptr, ptr %43, align 8
  %45 = ptrtoint ptr %44 to i64
  %46 = ptrtoint ptr %42 to i64
  %47 = sub i64 %45, %46
  %48 = and i64 %47, 4294967295
  %49 = icmp eq i64 %48, 0
  br i1 %49, label %.loopexit, label %50

50:                                               ; preds = %41
  %51 = getelementptr inbounds [4 x ptr], ptr %33, i64 0, i64 %indvars.iv
  %52 = load ptr, ptr %51, align 8
  %.not35 = icmp eq ptr %52, null
  br i1 %.not35, label %54, label %53

53:                                               ; preds = %50
  call void @ft_mem_free(ptr noundef %8, ptr noundef nonnull %52) #16
  br label %54

54:                                               ; preds = %53, %50
  %55 = add i64 %47, 1
  %56 = and i64 %55, 4294967295
  %57 = call ptr @ft_mem_qalloc(ptr noundef %8, i64 noundef %56, ptr noundef nonnull %6) #16
  store ptr %57, ptr %51, align 8
  %58 = load i32, ptr %6, align 4
  %.not36 = icmp eq i32 %58, 0
  br i1 %.not36, label %59, label %.loopexit

59:                                               ; preds = %54
  %60 = load ptr, ptr %35, align 8
  call void @llvm.memcpy.p0.p0.i64(ptr align 1 %57, ptr align 1 %60, i64 %48, i1 false)
  %61 = getelementptr inbounds i8, ptr %57, i64 %48
  store i8 0, ptr %61, align 1
  %indvars.iv.next = add nuw nsw i64 %indvars.iv, 1
  %62 = load i32, ptr %5, align 4
  %63 = sext i32 %62 to i64
  %64 = icmp slt i64 %indvars.iv.next, %63
  br i1 %64, label %34, label %..loopexit.loopexit_crit_edge, !llvm.loop !49

..loopexit.loopexit_crit_edge:                    ; preds = %59
  %.pre.pre = load i32, ptr %6, align 4
  br label %.loopexit

.loopexit:                                        ; preds = %54, %41, %13, %2, %..loopexit.loopexit_crit_edge, %29, %t1_allocate_blend.exit.thread
  %65 = phi i32 [ 0, %29 ], [ %.ph, %t1_allocate_blend.exit.thread ], [ %.pre.pre, %..loopexit.loopexit_crit_edge ], [ 162, %2 ], [ 3, %13 ], [ 3, %41 ], [ %58, %54 ]
  %66 = getelementptr inbounds i8, ptr %1, i64 24
  store i32 %65, ptr %66, align 8
  ret void
}